target datalayout = "e-m:e-p270:32:32-p271:32:32-p272:64:64-i64:64-i128:128-f80:128-n8:16:32:64-S128"
target triple = "x86_64-pc-linux-gnu"

%struct._packet_info = type { ptr, ptr, i32, i32, %struct.nstime_t, %struct.nstime_t, %struct.nstime_t, i8, ptr, ptr, ptr, ptr, %struct._address, %struct._address, %struct._address, %struct._address, %struct._address, %struct._address, i32, ptr, i8, [3 x i8], %struct.anon, i32, i32, i32, i32, ptr, i8, ptr, ptr, i16, i16, i32, i32, i16, i32, i32, ptr, ptr, ptr, i8, i8, i16, i16, i16, i32, i16, i16, ptr, ptr, ptr, ptr, ptr, i32, i32 }
%struct.nstime_t = type { i64, i32 }
%struct._address = type { i32, i32, ptr, ptr }
%struct.anon = type { i8, [3 x i8] }
%struct._asn1_ctx_t = type { i32, i32, i8, ptr, ptr, ptr, ptr, ptr, %struct.anon.0, %struct.anon.3, %struct.anon.4, ptr }
%struct.anon.0 = type { i32, i8, i8, i8, ptr, ptr, i32, i32, ptr, ptr, ptr, %union.anon }
%union.anon = type { %struct.anon.1 }
%struct.anon.1 = type { ptr }
%struct.anon.3 = type { ptr, ptr, ptr }
%struct.anon.4 = type { i32, i8, ptr, i32, i32, ptr, ptr, ptr, %union.anon.5 }
%union.anon.5 = type { %struct.anon.6 }
%struct.anon.6 = type { ptr }
%struct.nbap_private_data_t = type { i32, i16, i32, i32, i32, i32, i32, i32, i32, i32, i32, i32, i32, i32, i32, i32, i32, i32, i8, i32, i32, i32, i32, i32, i32, i32, i32, i8, i8, [256 x %struct.nbap_dch_channel_info_t], [8 x %struct.nbap_edch_channel_info_t], [8 x i32], [8 x %struct.nbap_hsdsch_channel_info_t], [8 x %struct.nbap_common_channel_info_t], ptr }
%struct.nbap_dch_channel_info_t = type { i32, i32, i32, [64 x i32], [64 x i32], i32, [64 x i32], [64 x i32] }
%struct.nbap_edch_channel_info_t = type { %struct._address, i16, i32, [16 x i8], [16 x i32], i8, [16 x i8] }
%struct.nbap_hsdsch_channel_info_t = type { %struct._address, i16, i32, i32, i8 }
%struct.nbap_common_channel_info_t = type { %struct._address, i16, i32 }
%struct._frame_data = type <{ i32, i32, i32, i32, i32, [4 x i8], i64, ptr, ptr, ptr, i8, i16, [5 x i8], %struct.nstime_t, %struct.nstime_t, i32, i32 }>
%struct.com_ctxt_ = type { i32, i32 }

@proto_nbap = internal global i32 0, align 4
@com_context_map = internal global ptr null, align 8

; Function Attrs: null_pointer_is_valid sspstrong uwtable
define internal ptr @nbap_get_private_data(ptr noundef %0) #0 {
  %2 = alloca ptr, align 8
  %3 = alloca i8, align 1
  %4 = alloca ptr, align 8
  store ptr %0, ptr %2, align 8
  call void @llvm.lifetime.start.p0(i64 1, ptr %3) #13
  call void @llvm.lifetime.start.p0(i64 8, ptr %4) #13
  %5 = load ptr, ptr %2, align 8
  %6 = getelementptr inbounds nuw %struct._packet_info, ptr %5, i32 0, i32 51
  %7 = load ptr, ptr %6, align 8
  %8 = load ptr, ptr %2, align 8
  %9 = load i32, ptr @proto_nbap, align 4
  %10 = call ptr @p_get_proto_data(ptr noundef %7, ptr noundef %8, i32 noundef %9, i32 noundef 0)
  store ptr %10, ptr %4, align 8
  %11 = load ptr, ptr %4, align 8
  %12 = icmp eq ptr %11, null
  br i1 %12, label %13, label %49

13:                                               ; preds = %1
  %14 = load ptr, ptr %2, align 8
  %15 = getelementptr inbounds nuw %struct._packet_info, ptr %14, i32 0, i32 51
  %16 = load ptr, ptr %15, align 8
  %17 = call noalias ptr @wmem_alloc0(ptr noundef %16, i64 noundef 268056) #14
  store ptr %17, ptr %4, align 8
  %18 = load ptr, ptr %2, align 8
  %19 = getelementptr inbounds nuw %struct._packet_info, ptr %18, i32 0, i32 51
  %20 = load ptr, ptr %19, align 8
  %21 = load ptr, ptr %2, align 8
  %22 = load i32, ptr @proto_nbap, align 4
  %23 = load ptr, ptr %4, align 8
  call void @p_add_proto_data(ptr noundef %20, ptr noundef %21, i32 noundef %22, i32 noundef 0, ptr noundef %23)
  %24 = load ptr, ptr %4, align 8
  %25 = getelementptr inbounds nuw %struct.nbap_private_data_t, ptr %24, i32 0, i32 17
  store i32 3, ptr %25, align 4
  %26 = load ptr, ptr %4, align 8
  %27 = getelementptr inbounds nuw %struct.nbap_private_data_t, ptr %26, i32 0, i32 27
  store i8 0, ptr %27, align 4
  %28 = load ptr, ptr %4, align 8
  %29 = getelementptr inbounds nuw %struct.nbap_private_data_t, ptr %28, i32 0, i32 3
  store i32 65535, ptr %29, align 4
  %30 = load ptr, ptr %4, align 8
  %31 = getelementptr inbounds nuw %struct.nbap_private_data_t, ptr %30, i32 0, i32 10
  store i32 65535, ptr %31, align 8
  %32 = load ptr, ptr %4, align 8
  %33 = getelementptr inbounds nuw %struct.nbap_private_data_t, ptr %32, i32 0, i32 28
  store i8 2, ptr %33, align 1
  store i8 0, ptr %3, align 1
  br label %34

34:                                               ; preds = %45, %13
  %35 = load i8, ptr %3, align 1
  %36 = zext i8 %35 to i32
  %37 = icmp slt i32 %36, 8
  br i1 %37, label %38, label %48

38:                                               ; preds = %34
  %39 = load ptr, ptr %4, align 8
  %40 = getelementptr inbounds nuw %struct.nbap_private_data_t, ptr %39, i32 0, i32 32
  %41 = load i8, ptr %3, align 1
  %42 = zext i8 %41 to i64
  %43 = getelementptr [8 x %struct.nbap_hsdsch_channel_info_t], ptr %40, i64 0, i64 %42
  %44 = getelementptr inbounds nuw %struct.nbap_hsdsch_channel_info_t, ptr %43, i32 0, i32 4
  store i8 1, ptr %44, align 4
  br label %45

45:                                               ; preds = %38
  %46 = load i8, ptr %3, align 1
  %47 = add i8 %46, 1
  store i8 %47, ptr %3, align 1
  br label %34, !llvm.loop !9

48:                                               ; preds = %34
  br label %49

49:                                               ; preds = %48, %1
  %50 = load ptr, ptr %4, align 8
  call void @llvm.lifetime.end.p0(i64 8, ptr %4) #13
  call void @llvm.lifetime.end.p0(i64 1, ptr %3) #13
  ret ptr %50
}

; Function Attrs: null_pointer_is_valid sspstrong uwtable
define internal i32 @dissect_nbap_NodeB_CommunicationContextID(ptr noundef %0, i32 noundef %1, ptr noundef %2, ptr noundef %3, i32 noundef %4) #0 {
  %6 = alloca i32, align 4
  %7 = alloca ptr, align 8
  %8 = alloca i32, align 4
  %9 = alloca ptr, align 8
  %10 = alloca ptr, align 8
  %11 = alloca i32, align 4
  %12 = alloca i8, align 1
  %13 = alloca i32, align 4
  %14 = alloca ptr, align 8
  %15 = alloca ptr, align 8
  %16 = alloca i32, align 4
  store ptr %0, ptr %7, align 8
  store i32 %1, ptr %8, align 4
  store ptr %2, ptr %9, align 8
  store ptr %3, ptr %10, align 8
  store i32 %4, ptr %11, align 4
  call void @llvm.lifetime.start.p0(i64 1, ptr %12) #13
  call void @llvm.lifetime.start.p0(i64 4, ptr %13) #13
  call void @llvm.lifetime.start.p0(i64 8, ptr %14) #13
  call void @llvm.lifetime.start.p0(i64 8, ptr %15) #13
  %17 = load ptr, ptr %9, align 8
  %18 = getelementptr inbounds nuw %struct._asn1_ctx_t, ptr %17, i32 0, i32 3
  %19 = load ptr, ptr %18, align 8
  %20 = call ptr @nbap_get_private_data(ptr noundef %19)
  store ptr %20, ptr %15, align 8
  %21 = load ptr, ptr %7, align 8
  %22 = load i32, ptr %8, align 4
  %23 = load ptr, ptr %9, align 8
  %24 = load ptr, ptr %10, align 8
  %25 = load i32, ptr %11, align 4
  %26 = call i32 @dissect_per_constrained_integer(ptr noundef %21, i32 noundef %22, ptr noundef %23, ptr noundef %24, i32 noundef %25, i32 noundef 0, i32 noundef 1048575, ptr noundef %13, i1 noundef zeroext false)
  store i32 %26, ptr %8, align 4
  %27 = load ptr, ptr %15, align 8
  %28 = getelementptr inbounds nuw %struct.nbap_private_data_t, ptr %27, i32 0, i32 27
  %29 = load i8, ptr %28, align 4, !range !10, !noundef !11
  %30 = trunc i8 %29 to i1
  %31 = zext i1 %30 to i8
  store i8 %31, ptr %12, align 1
  %32 = load i8, ptr %12, align 1, !range !10, !noundef !11
  %33 = trunc i8 %32 to i1
  br i1 %33, label %34, label %72

34:                                               ; preds = %5
  %35 = load ptr, ptr %9, align 8
  %36 = getelementptr inbounds nuw %struct._asn1_ctx_t, ptr %35, i32 0, i32 3
  %37 = load ptr, ptr %36, align 8
  %38 = getelementptr inbounds nuw %struct._packet_info, ptr %37, i32 0, i32 8
  %39 = load ptr, ptr %38, align 8
  %40 = getelementptr inbounds nuw %struct._frame_data, ptr %39, i32 0, i32 11
  %41 = load i16, ptr %40, align 1
  %42 = lshr i16 %41, 3
  %43 = and i16 %42, 1
  %44 = zext i16 %43 to i32
  %45 = icmp ne i32 %44, 0
  br i1 %45, label %46, label %48

46:                                               ; preds = %34
  %47 = load i32, ptr %8, align 4
  store i32 %47, ptr %6, align 4
  store i32 1, ptr %16, align 4
  br label %89

48:                                               ; preds = %34
  %49 = load ptr, ptr @com_context_map, align 8
  %50 = load i32, ptr %13, align 4
  %51 = call ptr @wmem_tree_lookup32(ptr noundef %49, i32 noundef %50)
  %52 = icmp eq ptr %51, null
  br i1 %52, label %53, label %71

53:                                               ; preds = %48
  %54 = call ptr @wmem_file_scope()
  %55 = call noalias ptr @wmem_alloc(ptr noundef %54, i64 noundef 8) #14
  store ptr %55, ptr %14, align 8
  %56 = load ptr, ptr %15, align 8
  %57 = getelementptr inbounds nuw %struct.nbap_private_data_t, ptr %56, i32 0, i32 6
  %58 = load i32, ptr %57, align 8
  %59 = load ptr, ptr %14, align 8
  %60 = getelementptr inbounds nuw %struct.com_ctxt_, ptr %59, i32 0, i32 0
  store i32 %58, ptr %60, align 4
  %61 = load ptr, ptr %9, align 8
  %62 = getelementptr inbounds nuw %struct._asn1_ctx_t, ptr %61, i32 0, i32 3
  %63 = load ptr, ptr %62, align 8
  %64 = getelementptr inbounds nuw %struct._packet_info, ptr %63, i32 0, i32 3
  %65 = load i32, ptr %64, align 4
  %66 = load ptr, ptr %14, align 8
  %67 = getelementptr inbounds nuw %struct.com_ctxt_, ptr %66, i32 0, i32 1
  store i32 %65, ptr %67, align 4
  %68 = load ptr, ptr @com_context_map, align 8
  %69 = load i32, ptr %13, align 4
  %70 = load ptr, ptr %14, align 8
  call void @wmem_tree_insert32(ptr noundef %68, i32 noundef %69, ptr noundef %70)
  br label %71

71:                                               ; preds = %53, %48
  br label %87

72:                                               ; preds = %5
  %73 = load ptr, ptr @com_context_map, align 8
  %74 = load i32, ptr %13, align 4
  %75 = call ptr @wmem_tree_lookup32(ptr noundef %73, i32 noundef %74)
  store ptr %75, ptr %14, align 8
  %76 = load ptr, ptr %14, align 8
  %77 = icmp ne ptr %76, null
  br i1 %77, label %78, label %86

78:                                               ; preds = %72
  %79 = load ptr, ptr %14, align 8
  %80 = getelementptr inbounds nuw %struct.com_ctxt_, ptr %79, i32 0, i32 0
  %81 = load i32, ptr %80, align 4
  %82 = load ptr, ptr %15, align 8
  %83 = getelementptr inbounds nuw %struct.nbap_private_data_t, ptr %82, i32 0, i32 6
  store i32 %81, ptr %83, align 8
  %84 = load ptr, ptr %15, align 8
  %85 = getelementptr inbounds nuw %struct.nbap_private_data_t, ptr %84, i32 0, i32 27
  store i8 1, ptr %85, align 4
  br label %86

86:                                               ; preds = %78, %72
  br label %87

87:                                               ; preds = %86, %71
  %88 = load i32, ptr %8, align 4
  store i32 %88, ptr %6, align 4
  store i32 1, ptr %16, align 4
  br label %89

89:                                               ; preds = %87, %46
  call void @llvm.lifetime.end.p0(i64 8, ptr %15) #13
  call void @llvm.lifetime.end.p0(i64 8, ptr %14) #13
  call void @llvm.lifetime.end.p0(i64 4, ptr %13) #13
  call void @llvm.lifetime.end.p0(i64 1, ptr %12) #13
  %90 = load i32, ptr %6, align 4
  ret i32 %90
}