; Function Attrs: null_pointer_is_valid sspstrong uwtable
define internal i32 @dissect_nbap_NodeB_CommunicationContextID(ptr noundef %0, i32 noundef %1, ptr noundef %2, ptr noundef %3, i32 noundef %4) #0 {
  %6 = alloca i32, align 4
  call void @llvm.lifetime.start.p0(i64 4, ptr nonnull %6) #9
  %7 = getelementptr inbounds nuw i8, ptr %2, i64 16
  %8 = load ptr, ptr %7, align 8
  %9 = getelementptr inbounds nuw i8, ptr %8, i64 408
  %10 = load ptr, ptr %9, align 8
  %11 = load i32, ptr @proto_nbap, align 4
  %12 = tail call ptr @p_get_proto_data(ptr noundef %10, ptr noundef %8, i32 noundef %11, i32 noundef 0)
  %13 = icmp eq ptr %12, null
  br i1 %13, label %14, label %nbap_get_private_data.exit

14:                                               ; preds = %5
  %15 = load ptr, ptr %9, align 8
  %16 = tail call noalias dereferenceable_or_null(268056) ptr @wmem_alloc0(ptr noundef %15, i64 noundef 268056) #10
  %17 = load ptr, ptr %9, align 8
  %18 = load i32, ptr @proto_nbap, align 4
  tail call void @p_add_proto_data(ptr noundef %17, ptr noundef %8, i32 noundef %18, i32 noundef 0, ptr noundef %16)
  %19 = getelementptr inbounds nuw i8, ptr %16, i64 68
  store i32 3, ptr %19, align 4
  %20 = getelementptr inbounds nuw i8, ptr %16, i64 108
  store i8 0, ptr %20, align 4
  %21 = getelementptr inbounds nuw i8, ptr %16, i64 12
  store i32 65535, ptr %21, align 4
  %22 = getelementptr inbounds nuw i8, ptr %16, i64 40
  store i32 65535, ptr %22, align 8
  %23 = getelementptr inbounds nuw i8, ptr %16, i64 109
  store i8 2, ptr %23, align 1
  %24 = getelementptr i8, ptr %16, i64 267508
  br label %25

25:                                               ; preds = %25, %14
  %indvars.iv.i = phi i64 [ 0, %14 ], [ %indvars.iv.next.i, %25 ]
  %.idx.i = mul nuw nsw i64 %indvars.iv.i, 40
  %26 = getelementptr i8, ptr %24, i64 %.idx.i
  store i8 1, ptr %26, align 4
  %indvars.iv.next.i = add nuw nsw i64 %indvars.iv.i, 1
  %exitcond.not.i = icmp eq i64 %indvars.iv.next.i, 8
  br i1 %exitcond.not.i, label %nbap_get_private_data.exit, label %25, !llvm.loop !9

nbap_get_private_data.exit:                       ; preds = %25, %5
  %.0.i = phi ptr [ %12, %5 ], [ %16, %25 ]
  %27 = call i32 @dissect_per_constrained_integer(ptr noundef %0, i32 noundef %1, ptr noundef %2, ptr noundef %3, i32 noundef %4, i32 noundef 0, i32 noundef 1048575, ptr noundef nonnull %6, i1 noundef zeroext false)
  %28 = getelementptr inbounds nuw i8, ptr %.0.i, i64 108
  %29 = load i8, ptr %28, align 4, !range !15, !noundef !16
  %30 = trunc nuw i8 %29 to i1
  br i1 %30, label %31, label %54

31:                                               ; preds = %nbap_get_private_data.exit
  %32 = load ptr, ptr %7, align 8
  %33 = getelementptr inbounds nuw i8, ptr %32, i64 80
  %34 = load ptr, ptr %33, align 8
  %35 = getelementptr inbounds nuw i8, ptr %34, i64 57
  %36 = load i16, ptr %35, align 1
  %37 = and i16 %36, 8
  %.not20 = icmp eq i16 %37, 0
  br i1 %.not20, label %38, label %61

38:                                               ; preds = %31
  %39 = load ptr, ptr @com_context_map, align 8
  %40 = load i32, ptr %6, align 4
  %41 = call ptr @wmem_tree_lookup32(ptr noundef %39, i32 noundef %40)
  %42 = icmp eq ptr %41, null
  br i1 %42, label %43, label %61

43:                                               ; preds = %38
  %44 = call ptr @wmem_file_scope()
  %45 = call noalias dereferenceable_or_null(8) ptr @wmem_alloc(ptr noundef %44, i64 noundef 8) #10
  %46 = getelementptr inbounds nuw i8, ptr %.0.i, i64 24
  %47 = load i32, ptr %46, align 8
  store i32 %47, ptr %45, align 4
  %48 = load ptr, ptr %7, align 8
  %49 = getelementptr inbounds nuw i8, ptr %48, i64 20
  %50 = load i32, ptr %49, align 4
  %51 = getelementptr inbounds nuw i8, ptr %45, i64 4
  store i32 %50, ptr %51, align 4
  %52 = load ptr, ptr @com_context_map, align 8
  %53 = load i32, ptr %6, align 4
  call void @wmem_tree_insert32(ptr noundef %52, i32 noundef %53, ptr noundef %45)
  br label %61

54:                                               ; preds = %nbap_get_private_data.exit
  %55 = load ptr, ptr @com_context_map, align 8
  %56 = load i32, ptr %6, align 4
  %57 = call ptr @wmem_tree_lookup32(ptr noundef %55, i32 noundef %56)
  %.not = icmp eq ptr %57, null
  br i1 %.not, label %61, label %58

58:                                               ; preds = %54
  %59 = load i32, ptr %57, align 4
  %60 = getelementptr inbounds nuw i8, ptr %.0.i, i64 24
  store i32 %59, ptr %60, align 8
  store i8 1, ptr %28, align 4
  br label %61

61:                                               ; preds = %43, %38, %58, %54, %31
  call void @llvm.lifetime.end.p0(i64 4, ptr nonnull %6) #9
  ret i32 %27
}